target datalayout = "e-m:e-p270:32:32-p271:32:32-p272:64:64-i64:64-i128:128-f80:128-n8:16:32:64-S128"
target triple = "x86_64-pc-linux-gnu"

%"class.icu_77::UnicodeString" = type { %"class.icu_77::Replaceable", %"union.icu_77::UnicodeString::StackBufferOrFields" }
%"class.icu_77::Replaceable" = type { %"class.icu_77::UObject" }
%"class.icu_77::UObject" = type { ptr }
%"union.icu_77::UnicodeString::StackBufferOrFields" = type { %struct.anon.0, [32 x i8] }
%struct.anon.0 = type { i16, i32, i32, ptr }
%"class.icu_77::Locale" = type <{ %"class.icu_77::UObject", [12 x i8], [6 x i8], [4 x i8], [2 x i8], i32, [4 x i8], ptr, [157 x i8], [3 x i8], ptr, i8, [7 x i8] }>
%"class.icu_77::LocalPointer.8" = type { %"class.icu_77::LocalPointerBase.9" }
%"class.icu_77::LocalPointerBase.9" = type { ptr }
%"class.icu_77::DecimalFormat" = type { %"class.icu_77::NumberFormat.base", ptr }
%"class.icu_77::NumberFormat.base" = type <{ %"class.icu_77::Format", i8, [3 x i8], i32, i32, i32, i32, i8, i8, [4 x i16], [2 x i8], i32 }>
%"class.icu_77::Format" = type { %"class.icu_77::UObject", ptr, ptr }
%"struct.icu_77::number::impl::DecimalFormatFields" = type <{ [8 x i8], %"struct.icu_77::number::impl::DecimalFormatProperties", %"class.icu_77::LocalPointer.8", %"class.icu_77::number::LocalizedNumberFormatter", %"struct.std::atomic", %"struct.std::atomic", %"struct.icu_77::number::impl::DecimalFormatWarehouse", %"struct.icu_77::number::impl::DecimalFormatProperties", i8, i8, %"struct.icu_77::number::impl::DecimalFormatFields::FastFormatData", [6 x i8] }>
%"class.icu_77::number::LocalizedNumberFormatter" = type { %"class.icu_77::number::NumberFormatterSettings", ptr, [8 x i8], ptr }
%"class.icu_77::number::NumberFormatterSettings" = type { %"struct.icu_77::number::impl::MacroProps" }
%"struct.icu_77::number::impl::MacroProps" = type { [4 x i8], %"class.icu_77::number::Notation", %"class.icu_77::MeasureUnit", %"class.icu_77::MeasureUnit", %"class.icu_77::number::Precision", i32, %"class.icu_77::number::impl::Grouper", %"class.icu_77::number::impl::Padder", %"class.icu_77::number::IntegerWidth", %"class.icu_77::number::impl::SymbolsWrapper", i32, i32, i8, i32, %"class.icu_77::number::Scale", %"class.icu_77::number::impl::StringProp", %"class.icu_77::number::impl::StringProp", ptr, ptr, i32, [4 x i8], %"class.icu_77::Locale" }
%"class.icu_77::number::Notation" = type { i32, %"union.icu_77::number::Notation::NotationUnion" }
%"union.icu_77::number::Notation::NotationUnion" = type { %"struct.icu_77::number::Notation::NotationUnion::ScientificSettings" }
%"struct.icu_77::number::Notation::NotationUnion::ScientificSettings" = type { i8, i8, i16, i32 }
%"class.icu_77::MeasureUnit" = type <{ %"class.icu_77::UObject", ptr, i16, i8, [5 x i8] }>
%"class.icu_77::number::Precision" = type <{ i32, [4 x i8], %"union.icu_77::number::Precision::PrecisionUnion", i32, [4 x i8] }>
%"union.icu_77::number::Precision::PrecisionUnion" = type { %"struct.icu_77::number::Precision::PrecisionUnion::IncrementSettings" }
%"struct.icu_77::number::Precision::PrecisionUnion::IncrementSettings" = type { i64, i16, i16 }
%"class.icu_77::number::impl::Grouper" = type { i16, i16, i16, i32 }
%"class.icu_77::number::impl::Padder" = type { i32, %union.anon }
%union.anon = type { %struct.anon.10 }
%struct.anon.10 = type { i32, i32 }
%"class.icu_77::number::IntegerWidth" = type <{ %union.anon.11, i8, [3 x i8] }>
%union.anon.11 = type { i32, [4 x i8] }
%"class.icu_77::number::impl::SymbolsWrapper" = type { i32, %union.anon.13 }
%union.anon.13 = type { ptr }
%"class.icu_77::number::Scale" = type <{ i32, [4 x i8], ptr, i32, [4 x i8] }>
%"class.icu_77::number::impl::StringProp" = type { ptr, i16, i32 }
%"struct.std::atomic" = type { %"struct.std::__atomic_base" }
%"struct.std::__atomic_base" = type { ptr }
%"struct.icu_77::number::impl::DecimalFormatWarehouse" = type { [8 x i8], %"class.icu_77::number::impl::AutoAffixPatternProvider", %"class.icu_77::LocalPointer.14" }
%"class.icu_77::number::impl::AutoAffixPatternProvider" = type { %"class.icu_77::number::impl::PropertiesAffixPatternProvider", %"class.icu_77::number::impl::CurrencyPluralInfoAffixProvider" }
%"class.icu_77::number::impl::PropertiesAffixPatternProvider" = type <{ %"class.icu_77::number::impl::AffixPatternProvider", %"class.icu_77::UnicodeString", %"class.icu_77::UnicodeString", %"class.icu_77::UnicodeString", %"class.icu_77::UnicodeString", i8, i8, i8, [5 x i8] }>
%"class.icu_77::number::impl::AffixPatternProvider" = type { ptr }
%"class.icu_77::number::impl::CurrencyPluralInfoAffixProvider" = type <{ %"class.icu_77::number::impl::AffixPatternProvider", [8 x %"class.icu_77::number::impl::PropertiesAffixPatternProvider"], i8, [7 x i8] }>
%"class.icu_77::LocalPointer.14" = type { %"class.icu_77::LocalPointerBase.15" }
%"class.icu_77::LocalPointerBase.15" = type { ptr }
%"struct.icu_77::number::impl::DecimalFormatProperties" = type <{ %"class.icu_77::number::impl::NullableValue", %"class.icu_77::number::impl::NullableValue.3", %"class.icu_77::number::impl::CurrencyPluralInfoWrapper", %"class.icu_77::number::impl::NullableValue.4", i8, i8, i8, i8, i8, [3 x i8], i32, i32, i8, [3 x i8], i32, i32, i32, i32, i32, i32, i32, i32, i32, i32, i32, %"class.icu_77::UnicodeString", %"class.icu_77::UnicodeString", %"class.icu_77::UnicodeString", %"class.icu_77::UnicodeString", %"class.icu_77::number::impl::NullableValue.5", %"class.icu_77::UnicodeString", i8, i8, [2 x i8], %"class.icu_77::number::impl::NullableValue.6", i8, i8, [2 x i8], i32, [4 x i8], %"class.icu_77::UnicodeString", %"class.icu_77::UnicodeString", %"class.icu_77::UnicodeString", %"class.icu_77::UnicodeString", double, %"class.icu_77::number::impl::NullableValue.7", i32, i8, [3 x i8] }>
%"class.icu_77::number::impl::NullableValue" = type { i8, i32 }
%"class.icu_77::number::impl::NullableValue.3" = type { i8, [7 x i8], %"class.icu_77::CurrencyUnit" }
%"class.icu_77::CurrencyUnit" = type { %"class.icu_77::MeasureUnit.base", [4 x i16], [4 x i8] }
%"class.icu_77::MeasureUnit.base" = type <{ %"class.icu_77::UObject", ptr, i16, i8 }>
%"class.icu_77::number::impl::CurrencyPluralInfoWrapper" = type { %"class.icu_77::LocalPointer.1" }
%"class.icu_77::LocalPointer.1" = type { %"class.icu_77::LocalPointerBase.2" }
%"class.icu_77::LocalPointerBase.2" = type { ptr }
%"class.icu_77::number::impl::NullableValue.4" = type { i8, i32 }
%"class.icu_77::number::impl::NullableValue.5" = type { i8, i32 }
%"class.icu_77::number::impl::NullableValue.6" = type { i8, i32 }
%"class.icu_77::number::impl::NullableValue.7" = type { i8, i32 }
%"struct.icu_77::number::impl::DecimalFormatFields::FastFormatData" = type { i16, i16, i16, i8, i8 }

; Function Attrs: mustprogress uwtable
define noundef signext i8 @_ZNK6icu_7713DecimalFormat31isFormatFailIfMoreThanMaxDigitsEv(ptr noundef nonnull align 8 dereferenceable(72) %0) #1 align 2 {
  %2 = alloca i8, align 1
  %3 = alloca ptr, align 8
  store ptr %0, ptr %3, align 8, !tbaa !23
  %4 = load ptr, ptr %3, align 8
  %5 = getelementptr inbounds nuw %"class.icu_77::DecimalFormat", ptr %4, i32 0, i32 1
  %6 = load ptr, ptr %5, align 8, !tbaa !31
  %7 = icmp eq ptr %6, null
  br i1 %7, label %8, label %14

8:                                                ; preds = %1
  %9 = call noundef nonnull align 8 dereferenceable(757) ptr @_ZN6icu_776number4impl23DecimalFormatProperties10getDefaultEv()
  %10 = getelementptr inbounds nuw %"struct.icu_77::number::impl::DecimalFormatProperties", ptr %9, i32 0, i32 8
  %11 = load i8, ptr %10, align 4, !tbaa !182, !range !128, !noundef !129
  %12 = trunc i8 %11 to i1
  %13 = zext i1 %12 to i8
  store i8 %13, ptr %2, align 1
  br label %22

14:                                               ; preds = %1
  %15 = getelementptr inbounds nuw %"class.icu_77::DecimalFormat", ptr %4, i32 0, i32 1
  %16 = load ptr, ptr %15, align 8, !tbaa !31
  %17 = getelementptr inbounds nuw %"struct.icu_77::number::impl::DecimalFormatFields", ptr %16, i32 0, i32 1
  %18 = getelementptr inbounds nuw %"struct.icu_77::number::impl::DecimalFormatProperties", ptr %17, i32 0, i32 8
  %19 = load i8, ptr %18, align 4, !tbaa !157, !range !128, !noundef !129
  %20 = trunc i8 %19 to i1
  %21 = zext i1 %20 to i8
  store i8 %21, ptr %2, align 1
  br label %22

22:                                               ; preds = %14, %8
  %23 = load i8, ptr %2, align 1
  ret i8 %23
}